target datalayout = "e-m:e-p270:32:32-p271:32:32-p272:64:64-i64:64-i128:128-f80:128-n8:16:32:64-S128"
target triple = "x86_64-pc-linux-gnu"

@_ZN6icu_775Grego12MONTH_LENGTHE = external constant [24 x i8], align 16

; Function Attrs: inlinehint mustprogress nounwind uwtable
define linkonce_odr noundef signext i8 @_ZN6icu_775Grego10isLeapYearEi(i32 noundef %0) #6 comdat align 2 {
  %2 = alloca i32, align 4
  store i32 %0, ptr %2, align 4, !tbaa !29
  %3 = load i32, ptr %2, align 4, !tbaa !29
  %4 = and i32 %3, 3
  %5 = icmp eq i32 %4, 0
  br i1 %5, label %6, label %16

6:                                                ; preds = %1
  %7 = load i32, ptr %2, align 4, !tbaa !29
  %8 = srem i32 %7, 100
  %9 = icmp ne i32 %8, 0
  br i1 %9, label %14, label %10

10:                                               ; preds = %6
  %11 = load i32, ptr %2, align 4, !tbaa !29
  %12 = srem i32 %11, 400
  %13 = icmp eq i32 %12, 0
  br label %14

14:                                               ; preds = %10, %6
  %15 = phi i1 [ true, %6 ], [ %13, %10 ]
  br label %16

16:                                               ; preds = %14, %1
  %17 = phi i1 [ false, %1 ], [ %15, %14 ]
  %18 = zext i1 %17 to i8
  ret i8 %18
}

; Function Attrs: inlinehint mustprogress uwtable
define linkonce_odr noundef signext i8 @_ZN6icu_775Grego11monthLengthEii(i32 noundef %0, i32 noundef %1) #9 comdat align 2 {
  %3 = alloca i32, align 4
  %4 = alloca i32, align 4
  store i32 %0, ptr %3, align 4, !tbaa !29
  store i32 %1, ptr %4, align 4, !tbaa !29
  %5 = load i32, ptr %4, align 4, !tbaa !29
  %6 = load i32, ptr %3, align 4, !tbaa !29
  %7 = call noundef signext i8 @_ZN6icu_775Grego10isLeapYearEi(i32 noundef %6)
  %8 = icmp ne i8 %7, 0
  %9 = select i1 %8, i32 12, i32 0
  %10 = add nsw i32 %5, %9
  %11 = sext i32 %10 to i64
  %12 = getelementptr inbounds [24 x i8], ptr @_ZN6icu_775Grego12MONTH_LENGTHE, i64 0, i64 %11
  %13 = load i8, ptr %12, align 1, !tbaa !43
  ret i8 %13
}

; Function Attrs: inlinehint mustprogress nounwind uwtable
define internal noundef signext i8 @_ZL9U_FAILURE10UErrorCode(i32 noundef %0) #6 {
  %2 = alloca i32, align 4
  store i32 %0, ptr %2, align 4, !tbaa !26
  %3 = load i32, ptr %2, align 4, !tbaa !26
  %4 = icmp sgt i32 %3, 0
  %5 = zext i1 %4 to i8
  ret i8 %5
}

; Function Attrs: mustprogress uwtable
define noundef i32 @_ZNK6icu_7717RuleBasedTimeZone9getOffsetEhiiihiR10UErrorCode(ptr noundef nonnull align 8 dereferenceable(105) %0, i8 noundef zeroext %1, i32 noundef %2, i32 noundef %3, i32 noundef %4, i8 noundef zeroext %5, i32 noundef %6, ptr noundef nonnull align 4 dereferenceable(4) %7) unnamed_addr #1 align 2 {
  %9 = alloca i32, align 4
  %10 = alloca ptr, align 8
  %11 = alloca i8, align 1
  %12 = alloca i32, align 4
  %13 = alloca i32, align 4
  %14 = alloca i32, align 4
  %15 = alloca i8, align 1
  %16 = alloca i32, align 4
  %17 = alloca ptr, align 8
  store ptr %0, ptr %10, align 8, !tbaa !3
  store i8 %1, ptr %11, align 1, !tbaa !43
  store i32 %2, ptr %12, align 4, !tbaa !29
  store i32 %3, ptr %13, align 4, !tbaa !29
  store i32 %4, ptr %14, align 4, !tbaa !29
  store i8 %5, ptr %15, align 1, !tbaa !43
  store i32 %6, ptr %16, align 4, !tbaa !29
  store ptr %7, ptr %17, align 8, !tbaa !33
  %18 = load ptr, ptr %10, align 8
  %19 = load ptr, ptr %17, align 8, !tbaa !33
  %20 = load i32, ptr %19, align 4, !tbaa !26
  %21 = call noundef signext i8 @_ZL9U_FAILURE10UErrorCode(i32 noundef %20)
  %22 = icmp ne i8 %21, 0
  br i1 %22, label %23, label %24

23:                                               ; preds = %8
  store i32 0, ptr %9, align 4
  br label %48

24:                                               ; preds = %8
  %25 = load i32, ptr %13, align 4, !tbaa !29
  %26 = icmp slt i32 %25, 0
  br i1 %26, label %30, label %27

27:                                               ; preds = %24
  %28 = load i32, ptr %13, align 4, !tbaa !29
  %29 = icmp sgt i32 %28, 11
  br i1 %29, label %30, label %32

30:                                               ; preds = %27, %24
  %31 = load ptr, ptr %17, align 8, !tbaa !33
  store i32 1, ptr %31, align 4, !tbaa !26
  store i32 0, ptr %9, align 4
  br label %48

32:                                               ; preds = %27
  %33 = load i8, ptr %11, align 1, !tbaa !43
  %34 = load i32, ptr %12, align 4, !tbaa !29
  %35 = load i32, ptr %13, align 4, !tbaa !29
  %36 = load i32, ptr %14, align 4, !tbaa !29
  %37 = load i8, ptr %15, align 1, !tbaa !43
  %38 = load i32, ptr %16, align 4, !tbaa !29
  %39 = load i32, ptr %12, align 4, !tbaa !29
  %40 = load i32, ptr %13, align 4, !tbaa !29
  %41 = call noundef signext i8 @_ZN6icu_775Grego11monthLengthEii(i32 noundef %39, i32 noundef %40)
  %42 = sext i8 %41 to i32
  %43 = load ptr, ptr %17, align 8, !tbaa !33
  %44 = load ptr, ptr %18, align 8, !tbaa !12
  %45 = getelementptr inbounds ptr, ptr %44, i64 5
  %46 = load ptr, ptr %45, align 8
  %47 = call noundef i32 %46(ptr noundef nonnull align 8 dereferenceable(105) %18, i8 noundef zeroext %33, i32 noundef %34, i32 noundef %35, i32 noundef %36, i8 noundef zeroext %37, i32 noundef %38, i32 noundef %42, ptr noundef nonnull align 4 dereferenceable(4) %43)
  store i32 %47, ptr %9, align 4
  br label %48

48:                                               ; preds = %32, %30, %23
  %49 = load i32, ptr %9, align 4
  ret i32 %49
}