; Function Attrs: mustprogress uwtable
define noundef i32 @_ZNK6icu_7717RuleBasedTimeZone9getOffsetEhiiihiR10UErrorCode(ptr noundef nonnull align 8 dereferenceable(105) %0, i8 noundef zeroext %1, i32 noundef %2, i32 noundef %3, i32 noundef %4, i8 noundef zeroext %5, i32 noundef %6, ptr noundef nonnull align 4 dereferenceable(4) %7) unnamed_addr #1 align 2 {
  %9 = load i32, ptr %7, align 4, !tbaa !21
  %10 = icmp slt i32 %9, 1
  br i1 %10, label %11, label %29

11:                                               ; preds = %8
  %or.cond = icmp ugt i32 %3, 11
  br i1 %or.cond, label %12, label %13

12:                                               ; preds = %11
  store i32 1, ptr %7, align 4, !tbaa !21
  br label %29

13:                                               ; preds = %11
  %14 = and i32 %2, 3
  %15 = icmp eq i32 %14, 0
  br i1 %15, label %16, label %_ZN6icu_775Grego10isLeapYearEi.exit.thread.i

16:                                               ; preds = %13
  %17 = srem i32 %2, 100
  %.not.i.i = icmp ne i32 %17, 0
  %18 = srem i32 %2, 400
  %.not.i = icmp eq i32 %18, 0
  %or.cond.i = or i1 %.not.i.i, %.not.i
  br i1 %or.cond.i, label %_ZN6icu_775Grego11monthLengthEii.exit, label %_ZN6icu_775Grego10isLeapYearEi.exit.thread.i

_ZN6icu_775Grego10isLeapYearEi.exit.thread.i:     ; preds = %16, %13
  br label %_ZN6icu_775Grego11monthLengthEii.exit

_ZN6icu_775Grego11monthLengthEii.exit:            ; preds = %16, %_ZN6icu_775Grego10isLeapYearEi.exit.thread.i
  %19 = phi i32 [ 0, %_ZN6icu_775Grego10isLeapYearEi.exit.thread.i ], [ 12, %16 ]
  %20 = add nuw nsw i32 %19, %3
  %21 = zext nneg i32 %20 to i64
  %22 = getelementptr inbounds nuw [24 x i8], ptr @_ZN6icu_775Grego12MONTH_LENGTHE, i64 0, i64 %21
  %23 = load i8, ptr %22, align 1, !tbaa !31
  %24 = sext i8 %23 to i32
  %25 = load ptr, ptr %0, align 8, !tbaa !3
  %26 = getelementptr inbounds nuw i8, ptr %25, i64 40
  %27 = load ptr, ptr %26, align 8
  %28 = tail call noundef i32 %27(ptr noundef nonnull align 8 dereferenceable(105) %0, i8 noundef zeroext %1, i32 noundef %2, i32 noundef %3, i32 noundef %4, i8 noundef zeroext %5, i32 noundef %6, i32 noundef %24, ptr noundef nonnull align 4 dereferenceable(4) %7)
  br label %29

29:                                               ; preds = %8, %_ZN6icu_775Grego11monthLengthEii.exit, %12
  %.0 = phi i32 [ 0, %12 ], [ %28, %_ZN6icu_775Grego11monthLengthEii.exit ], [ 0, %8 ]
  ret i32 %.0
}